target datalayout = "e-m:e-p270:32:32-p271:32:32-p272:64:64-i64:64-i128:128-f80:128-n8:16:32:64-S128"
target triple = "x86_64-unknown-linux-gnu"

%"class.sat::literal" = type { i32 }
%class.svector.5 = type { %class.vector.6 }
%class.vector.6 = type { ptr }
%"class.sat::justification" = type <{ i32, [4 x i8], i64, i32, [4 x i8] }>
%"class.sat::extension" = type { ptr, i8, i32, %class.symbol, ptr }
%class.symbol = type { ptr }
%class.tracked_uint_set = type { %class.svector.9, %class.svector.5 }
%class.svector.9 = type { %class.vector.10 }
%class.vector.10 = type { ptr }
%"class.sat::use_list" = type { %class.vector.14 }
%class.vector.14 = type { ptr }
%class.svector.11 = type { %class.vector.12 }
%class.vector.12 = type { ptr }
%class.svector.15 = type { %class.vector.16 }
%class.vector.16 = type { ptr }
%class.svector.17 = type { %class.vector.18 }
%class.vector.18 = type { ptr }
%"class.sat::solver" = type { %"class.sat::solver_core", i8, [7 x i8], %"struct.sat::config", %"struct.sat::stats", %class.scoped_ptr, %class.scoped_ptr.19, ptr, %"class.sat::drat", [2 x %"class.sat::clause_allocator"], i8, %class.random_gen, %"class.sat::cleaner", %class.svector.31, %"class.sat::model_converter", i8, %"class.sat::simplifier", %"class.sat::scc", %"class.sat::asymm_branch", %"class.sat::probing", i8, [7 x i8], %"class.sat::mus", %"class.sat::binspr", i8, i8, [6 x i8], %"class.sat::justification", %"class.sat::literal", %class.ptr_vector.35, %class.ptr_vector.35, i32, %class.svector.5, %class.svector.5, %class.svector.5, %class.svector.5, %class.vector.51, %class.svector.31, %class.svector.52, %class.svector.15, %class.svector.15, %class.svector.15, %class.svector.15, %class.svector.15, %class.svector.5, %class.svector.5, i32, %class.svector.11, %class.svector.5, i32, %class.svector.54, %class.svector.54, %class.svector.54, %class.svector.54, %class.svector.54, i32, double, %class.svector.15, %class.svector.15, %class.svector.15, %class.svector.9, i32, i32, i32, i32, i32, i32, %"struct.sat::backoff", i32, i32, %"struct.sat::backoff", %"struct.sat::backoff", %class.var_queue, i32, i32, i32, %class.ema, %class.ema, %class.ema, %class.ema, %class.ema, %class.svector.11, %class.svector.39, %"class.std::__cxx11::basic_string", i8, %class.visit_helper, %class.svector.56, %class.scoped_limit_trail, %class.stopwatch, %class.params_ref, %"struct.sat::no_drat_params", %class.scoped_ptr.49, %class.svector.11, %"class.sat::literal_set", %"class.sat::literal_set", %class.svector.11, i32, i32, i32, i32, i8, ptr, ptr, %class.statistics, i32, i32, i32, i32, i8, i32, i32, i32, i32, i32, i32, i32, double, i32, double, i8, i8, %class.svector.11, i8, %class.svector.54, i32, i32, i32, %class.svector.11, %class.svector.11, %class.svector.9, %class.svector.5, %class.approx_set_tpl, %class.svector.11, %class.svector.11, %class.vector.30, %class.svector.11, %class.svector.47, %class.u_map, %class.svector.11 }
%"class.sat::solver_core" = type { ptr, ptr }
%"struct.sat::config" = type <{ i64, i32, i32, i32, i8, [3 x i8], i32, i32, double, i32, i8, [3 x i8], i32, i8, [3 x i8], i32, [4 x i8], double, double, i32, i32, double, double, i32, [4 x i8], %class.symbol, double, i32, i32, i8, [3 x i8], i32, i32, i8, [3 x i8], i32, i8, [3 x i8], i32, i8, [3 x i8], i32, i8, i8, i8, i8, i32, i8, i8, i8, i8, i8, i8, i8, i8, i32, i8, i8, i8, i8, i32, double, i32, [4 x i8], double, double, double, double, i32, i8, i8, [2 x i8], double, i8, i8, [2 x i8], i32, double, i32, i32, i32, i32, i32, i32, i32, i32, i8, i8, i8, i8, i32, i32, i8, i8, i8, i8, i8, i8, i8, [5 x i8], %class.symbol, i8, i8, i8, i8, i8, i8, [2 x i8], i32, i32, i32, i8, [3 x i8], double, double, double, double, double, i8, [7 x i8] }>
%"struct.sat::stats" = type { i32, i32, i32, i32, i32, i32, i32, i32, i32, i32, i32, i32, i32, i32, i32, i32, i32, i32, i32, i32, i32 }
%class.scoped_ptr = type { ptr }
%class.scoped_ptr.19 = type { ptr }
%"class.sat::drat" = type { ptr, %class.svector.20, ptr, %"class.sat::clause_allocator", ptr, ptr, %class.svector.26, %class.svector.28, %class.vector.30, %class.svector.31, i8, i8, i8, i8, i8, %"struct.sat::drat::stats" }
%class.svector.20 = type { %class.vector.21 }
%class.vector.21 = type { ptr }
%"class.sat::clause_allocator" = type { %class.sat_allocator, %class.id_gen }
%class.sat_allocator = type { ptr, i64, %class.ptr_vector.22, ptr, [65 x %class.ptr_vector.24] }
%class.ptr_vector.22 = type { %class.vector.23 }
%class.vector.23 = type { ptr }
%class.ptr_vector.24 = type { %class.vector.25 }
%class.vector.25 = type { ptr }
%class.id_gen = type { i32, %class.svector.5 }
%class.svector.26 = type { %class.vector.27 }
%class.vector.27 = type { ptr }
%class.svector.28 = type { %class.vector.29 }
%class.vector.29 = type { ptr }
%"struct.sat::drat::stats" = type { i32, i32, i32, i32 }
%class.random_gen = type { i32 }
%"class.sat::cleaner" = type { ptr, i32, i32, i32, i32 }
%"class.sat::model_converter" = type { %class.vector.33, i32, %class.svector.15, ptr, %class.svector.17 }
%class.vector.33 = type { ptr }
%"class.sat::simplifier" = type { ptr, i32, %"class.sat::use_list", %"class.sat::ext_use_list", %"class.sat::clause_set", %class.svector.37, i32, %class.tracked_uint_set, i8, %"class.sat::tmp_clause", %class.svector.9, i32, i32, i8, i8, i8, i8, i32, i8, i8, i32, i8, i32, i8, i8, i32, i32, i32, i32, i32, i32, i32, i32, i32, i32, i8, i32, i8, i8, i32, i32, i32, i32, i32, i32, i32, i32, i32, i32, i32, i8, i32, %class.ptr_vector.35, %class.svector.11, %class.svector.39, %class.svector.39, %class.svector.11 }
%"class.sat::ext_use_list" = type { %class.vector.34 }
%class.vector.34 = type { ptr }
%"class.sat::clause_set" = type { %class.svector.5, %class.ptr_vector.35 }
%class.svector.37 = type { %class.vector.38 }
%class.vector.38 = type { ptr }
%"class.sat::tmp_clause" = type { ptr }
%"class.sat::scc" = type { ptr, i8, i8, i32, i32, %"class.sat::big" }
%"class.sat::big" = type { ptr, i32, %class.vector.41, %class.svector.15, %class.svector.42, %class.svector.42, %class.svector.11, %class.svector.11, i8, i8, %class.vector.41 }
%class.svector.42 = type { %class.vector.43 }
%class.vector.43 = type { ptr }
%class.vector.41 = type { ptr }
%"class.sat::asymm_branch" = type { ptr, %class.params_ref, i64, %class.random_gen, i32, i32, i8, i32, i32, i8, i8, i64, i32, i32, i32, %class.svector.11, %class.svector.11, %class.svector.44, %class.svector.44, %class.svector.11, %class.svector.11 }
%class.svector.44 = type { %class.vector.45 }
%class.vector.45 = type { ptr }
%"class.sat::probing" = type { ptr, i32, %"class.sat::literal_set", %class.svector.11, i32, i8, i32, i8, i8, i64, i32, %class.vector.46, %class.svector.47, %"class.sat::big" }
%class.vector.46 = type { ptr }
%"class.sat::mus" = type <{ ptr, %class.svector.11, %class.svector.11, i8, [7 x i8], %class.svector.31, i32, [4 x i8] }>
%"class.sat::binspr" = type <{ ptr, %class.scoped_ptr.49, i32, i32, %class.vector.50, i32, i32, %class.svector.15, %class.svector.15, %class.svector.11, %class.svector.11, i32, i32, i32, i32, i32, [4 x i32], [5 x i32], [5 x i32], [4 x i8] }>
%class.vector.50 = type { ptr }
%class.ptr_vector.35 = type { %class.vector.36 }
%class.vector.36 = type { ptr }
%class.vector.51 = type { ptr }
%class.svector.31 = type { %class.vector.32 }
%class.vector.32 = type { ptr }
%class.svector.52 = type { %class.vector.53 }
%class.vector.53 = type { ptr }
%"struct.sat::backoff" = type { i32, i32, i32, i32, i32 }
%class.var_queue = type { %class.heap }
%class.heap = type { %"struct.var_queue<svector<unsigned int>>::lt", %class.svector.42, %class.svector.42 }
%"struct.var_queue<svector<unsigned int>>::lt" = type { ptr }
%class.ema = type { double, double, double, i32, i32 }
%class.svector.39 = type { %class.vector.40 }
%class.vector.40 = type { ptr }
%"class.std::__cxx11::basic_string" = type { %"struct.std::__cxx11::basic_string<char>::_Alloc_hider", i64, %union.anon }
%"struct.std::__cxx11::basic_string<char>::_Alloc_hider" = type { ptr }
%union.anon = type { i64, [8 x i8] }
%class.visit_helper = type { %class.svector.5, i32, i32 }
%class.svector.56 = type { %class.vector.57 }
%class.vector.57 = type { ptr }
%class.scoped_limit_trail = type { %class.svector.5, i32, i32 }
%class.stopwatch = type <{ %"class.std::chrono::time_point", %"class.std::chrono::duration", i8, [7 x i8] }>
%"class.std::chrono::time_point" = type { %"class.std::chrono::duration" }
%"class.std::chrono::duration" = type { i64 }
%class.params_ref = type { ptr }
%"struct.sat::no_drat_params" = type { %class.params_ref }
%class.scoped_ptr.49 = type { ptr }
%"class.sat::literal_set" = type { %class.tracked_uint_set }
%class.statistics = type { %class.svector.58, %class.svector.60 }
%class.svector.58 = type { %class.vector.59 }
%class.vector.59 = type { ptr }
%class.svector.60 = type { %class.vector.61 }
%class.vector.61 = type { ptr }
%class.svector.54 = type { %class.vector.55 }
%class.vector.55 = type { ptr }
%class.approx_set_tpl = type { i32 }
%class.vector.30 = type { ptr }
%class.svector.47 = type { %class.vector.48 }
%class.vector.48 = type { ptr }
%class.u_map = type { %class.map }
%class.map = type { %class.table2map }
%class.table2map = type { %class.core_hashtable }
%class.core_hashtable = type <{ ptr, i32, i32, i32, [4 x i8] }>

; Function Attrs: mustprogress uwtable
define linkonce_odr hidden noundef nonnull align 8 dereferenceable(8) ptr @_ZN6vectorIjLb0EjE9push_backEOj(ptr noundef nonnull align 8 dereferenceable(8) %this, ptr noundef nonnull align 4 dereferenceable(4) %elem) #5 comdat align 2 {
entry:
  %this.addr = alloca ptr, align 8
  %elem.addr = alloca ptr, align 8
  store ptr %this, ptr %this.addr, align 8
  store ptr %elem, ptr %elem.addr, align 8
  %this1 = load ptr, ptr %this.addr, align 8
  %m_data = getelementptr inbounds %class.vector.6, ptr %this1, i32 0, i32 0
  %0 = load ptr, ptr %m_data, align 8
  %cmp = icmp eq ptr %0, null
  br i1 %cmp, label %if.then, label %lor.lhs.false

lor.lhs.false:                                    ; preds = %entry
  %m_data2 = getelementptr inbounds %class.vector.6, ptr %this1, i32 0, i32 0
  %1 = load ptr, ptr %m_data2, align 8
  %arrayidx = getelementptr inbounds i32, ptr %1, i64 -1
  %2 = load i32, ptr %arrayidx, align 4
  %m_data3 = getelementptr inbounds %class.vector.6, ptr %this1, i32 0, i32 0
  %3 = load ptr, ptr %m_data3, align 8
  %arrayidx4 = getelementptr inbounds i32, ptr %3, i64 -2
  %4 = load i32, ptr %arrayidx4, align 4
  %cmp5 = icmp eq i32 %2, %4
  br i1 %cmp5, label %if.then, label %if.end

if.then:                                          ; preds = %lor.lhs.false, %entry
  call void @_ZN6vectorIjLb0EjE13expand_vectorEv(ptr noundef nonnull align 8 dereferenceable(8) %this1)
  br label %if.end

if.end:                                           ; preds = %if.then, %lor.lhs.false
  %m_data6 = getelementptr inbounds %class.vector.6, ptr %this1, i32 0, i32 0
  %5 = load ptr, ptr %m_data6, align 8
  %m_data7 = getelementptr inbounds %class.vector.6, ptr %this1, i32 0, i32 0
  %6 = load ptr, ptr %m_data7, align 8
  %arrayidx8 = getelementptr inbounds i32, ptr %6, i64 -1
  %7 = load i32, ptr %arrayidx8, align 4
  %idx.ext = zext i32 %7 to i64
  %add.ptr = getelementptr inbounds i32, ptr %5, i64 %idx.ext
  %8 = load ptr, ptr %elem.addr, align 8
  %9 = load i32, ptr %8, align 4
  store i32 %9, ptr %add.ptr, align 4
  %m_data9 = getelementptr inbounds %class.vector.6, ptr %this1, i32 0, i32 0
  %10 = load ptr, ptr %m_data9, align 8
  %arrayidx10 = getelementptr inbounds i32, ptr %10, i64 -1
  %11 = load i32, ptr %arrayidx10, align 4
  %inc = add i32 %11, 1
  store i32 %inc, ptr %arrayidx10, align 4
  ret ptr %this1
}

; Function Attrs: mustprogress nounwind uwtable
define linkonce_odr hidden noundef i32 @_ZNK6vectorIjLb0EjE4sizeEv(ptr noundef nonnull align 8 dereferenceable(8) %this) #4 comdat align 2 {
entry:
  %retval = alloca i32, align 4
  %this.addr = alloca ptr, align 8
  store ptr %this, ptr %this.addr, align 8
  %this1 = load ptr, ptr %this.addr, align 8
  %m_data = getelementptr inbounds %class.vector.6, ptr %this1, i32 0, i32 0
  %0 = load ptr, ptr %m_data, align 8
  %cmp = icmp eq ptr %0, null
  br i1 %cmp, label %if.then, label %if.end

if.then:                                          ; preds = %entry
  store i32 0, ptr %retval, align 4
  br label %return

if.end:                                           ; preds = %entry
  %m_data2 = getelementptr inbounds %class.vector.6, ptr %this1, i32 0, i32 0
  %1 = load ptr, ptr %m_data2, align 8
  %arrayidx = getelementptr inbounds i32, ptr %1, i64 -1
  %2 = load i32, ptr %arrayidx, align 4
  store i32 %2, ptr %retval, align 4
  br label %return

return:                                           ; preds = %if.end, %if.then
  %3 = load i32, ptr %retval, align 4
  ret i32 %3
}

; Function Attrs: mustprogress nounwind uwtable
define linkonce_odr hidden void @_ZN6vectorIjLb0EjE5resetEv(ptr noundef nonnull align 8 dereferenceable(8) %this) #4 comdat align 2 {
entry:
  %this.addr = alloca ptr, align 8
  store ptr %this, ptr %this.addr, align 8
  %this1 = load ptr, ptr %this.addr, align 8
  %m_data = getelementptr inbounds %class.vector.6, ptr %this1, i32 0, i32 0
  %0 = load ptr, ptr %m_data, align 8
  %tobool = icmp ne ptr %0, null
  br i1 %tobool, label %if.then, label %if.end

if.then:                                          ; preds = %entry
  %m_data2 = getelementptr inbounds %class.vector.6, ptr %this1, i32 0, i32 0
  %1 = load ptr, ptr %m_data2, align 8
  %arrayidx = getelementptr inbounds i32, ptr %1, i64 -1
  store i32 0, ptr %arrayidx, align 4
  br label %if.end

if.end:                                           ; preds = %if.then, %entry
  ret void
}

; Function Attrs: mustprogress nounwind uwtable
define linkonce_odr hidden noundef i32 @_ZNK6vectorIN3sat13justificationELb0EjE4sizeEv(ptr noundef nonnull align 8 dereferenceable(8) %this) #4 comdat align 2 {
entry:
  %retval = alloca i32, align 4
  %this.addr = alloca ptr, align 8
  store ptr %this, ptr %this.addr, align 8
  %this1 = load ptr, ptr %this.addr, align 8
  %m_data = getelementptr inbounds %class.vector.53, ptr %this1, i32 0, i32 0
  %0 = load ptr, ptr %m_data, align 8
  %cmp = icmp eq ptr %0, null
  br i1 %cmp, label %if.then, label %if.end

if.then:                                          ; preds = %entry
  store i32 0, ptr %retval, align 4
  br label %return

if.end:                                           ; preds = %entry
  %m_data2 = getelementptr inbounds %class.vector.53, ptr %this1, i32 0, i32 0
  %1 = load ptr, ptr %m_data2, align 8
  %arrayidx = getelementptr inbounds i32, ptr %1, i64 -1
  %2 = load i32, ptr %arrayidx, align 4
  store i32 %2, ptr %retval, align 4
  br label %return

return:                                           ; preds = %if.end, %if.then
  %3 = load i32, ptr %retval, align 4
  ret i32 %3
}

; Function Attrs: mustprogress uwtable
define linkonce_odr hidden void @_ZN12visit_helper12init_visitedEjj(ptr noundef nonnull align 8 dereferenceable(16) %this, i32 noundef %n, i32 noundef %lim) #5 comdat align 2 {
entry:
  %this.addr = alloca ptr, align 8
  %n.addr = alloca i32, align 4
  %lim.addr = alloca i32, align 4
  %ref.tmp = alloca i32, align 4
  store ptr %this, ptr %this.addr, align 8
  store i32 %n, ptr %n.addr, align 4
  store i32 %lim, ptr %lim.addr, align 4
  %this1 = load ptr, ptr %this.addr, align 8
  %m_visited_end = getelementptr inbounds %class.visit_helper, ptr %this1, i32 0, i32 2
  %0 = load i32, ptr %m_visited_end, align 4
  %m_visited_end2 = getelementptr inbounds %class.visit_helper, ptr %this1, i32 0, i32 2
  %1 = load i32, ptr %m_visited_end2, align 4
  %2 = load i32, ptr %lim.addr, align 4
  %add = add i32 %1, %2
  %cmp = icmp uge i32 %0, %add
  br i1 %cmp, label %if.then, label %if.else

if.then:                                          ; preds = %entry
  %m_visited_begin = getelementptr inbounds %class.visit_helper, ptr %this1, i32 0, i32 1
  store i32 0, ptr %m_visited_begin, align 8
  %3 = load i32, ptr %lim.addr, align 4
  %m_visited_end3 = getelementptr inbounds %class.visit_helper, ptr %this1, i32 0, i32 2
  store i32 %3, ptr %m_visited_end3, align 4
  %m_visited = getelementptr inbounds %class.visit_helper, ptr %this1, i32 0, i32 0
  call void @_ZN6vectorIjLb0EjE5resetEv(ptr noundef nonnull align 8 dereferenceable(8) %m_visited)
  br label %if.end

if.else:                                          ; preds = %entry
  %m_visited_end4 = getelementptr inbounds %class.visit_helper, ptr %this1, i32 0, i32 2
  %4 = load i32, ptr %m_visited_end4, align 4
  %m_visited_begin5 = getelementptr inbounds %class.visit_helper, ptr %this1, i32 0, i32 1
  store i32 %4, ptr %m_visited_begin5, align 8
  %m_visited_end6 = getelementptr inbounds %class.visit_helper, ptr %this1, i32 0, i32 2
  %5 = load i32, ptr %m_visited_end6, align 4
  %6 = load i32, ptr %lim.addr, align 4
  %add7 = add i32 %5, %6
  %m_visited_end8 = getelementptr inbounds %class.visit_helper, ptr %this1, i32 0, i32 2
  store i32 %add7, ptr %m_visited_end8, align 4
  br label %if.end

if.end:                                           ; preds = %if.else, %if.then
  br label %while.cond

while.cond:                                       ; preds = %while.body, %if.end
  %m_visited9 = getelementptr inbounds %class.visit_helper, ptr %this1, i32 0, i32 0
  %call = call noundef i32 @_ZNK6vectorIjLb0EjE4sizeEv(ptr noundef nonnull align 8 dereferenceable(8) %m_visited9)
  %7 = load i32, ptr %n.addr, align 4
  %cmp10 = icmp ult i32 %call, %7
  br i1 %cmp10, label %while.body, label %while.end

while.body:                                       ; preds = %while.cond
  %m_visited11 = getelementptr inbounds %class.visit_helper, ptr %this1, i32 0, i32 0
  store i32 0, ptr %ref.tmp, align 4
  %call12 = call noundef nonnull align 8 dereferenceable(8) ptr @_ZN6vectorIjLb0EjE9push_backEOj(ptr noundef nonnull align 8 dereferenceable(8) %m_visited11, ptr noundef nonnull align 4 dereferenceable(4) %ref.tmp)
  br label %while.cond, !llvm.loop !109

while.end:                                        ; preds = %while.cond
  ret void
}

; Function Attrs: mustprogress uwtable
define linkonce_odr hidden noundef i32 @_ZNK3sat6solver8num_varsEv(ptr noundef nonnull align 8 dereferenceable(4408) %this) #5 comdat align 2 {
entry:
  %this.addr = alloca ptr, align 8
  store ptr %this, ptr %this.addr, align 8
  %this1 = load ptr, ptr %this.addr, align 8
  %m_justification = getelementptr inbounds %"class.sat::solver", ptr %this1, i32 0, i32 38
  %call = call noundef i32 @_ZNK6vectorIN3sat13justificationELb0EjE4sizeEv(ptr noundef nonnull align 8 dereferenceable(8) %m_justification)
  ret i32 %call
}

; Function Attrs: mustprogress uwtable
define linkonce_odr hidden void @_ZN3sat6solver12init_visitedEj(ptr noundef nonnull align 8 dereferenceable(4408) %this, i32 noundef %lim) #5 comdat align 2 {
entry:
  %this.addr = alloca ptr, align 8
  %lim.addr = alloca i32, align 4
  store ptr %this, ptr %this.addr, align 8
  store i32 %lim, ptr %lim.addr, align 4
  %this1 = load ptr, ptr %this.addr, align 8
  %m_visited = getelementptr inbounds %"class.sat::solver", ptr %this1, i32 0, i32 85
  %call = call noundef i32 @_ZNK3sat6solver8num_varsEv(ptr noundef nonnull align 8 dereferenceable(4408) %this1)
  %mul = mul i32 2, %call
  %0 = load i32, ptr %lim.addr, align 4
  call void @_ZN12visit_helper12init_visitedEjj(ptr noundef nonnull align 8 dereferenceable(16) %m_visited, i32 noundef %mul, i32 noundef %0)
  ret void
}

; Function Attrs: mustprogress nounwind uwtable
define linkonce_odr hidden noundef nonnull align 8 dereferenceable(4408) ptr @_ZN3sat9extension1sEv(ptr noundef nonnull align 8 dereferenceable(32) %this) #4 comdat align 2 {
entry:
  %this.addr = alloca ptr, align 8
  store ptr %this, ptr %this.addr, align 8
  %this1 = load ptr, ptr %this.addr, align 8
  %m_solver = getelementptr inbounds %"class.sat::extension", ptr %this1, i32 0, i32 4
  %0 = load ptr, ptr %m_solver, align 8
  ret ptr %0
}

; Function Attrs: mustprogress uwtable
define hidden void @_ZN2pb6solver12init_visitedEv(ptr noundef nonnull align 8 dereferenceable(1049) %this) #5 align 2 {
entry:
  %this.addr = alloca ptr, align 8
  store ptr %this, ptr %this.addr, align 8
  %this1 = load ptr, ptr %this.addr, align 8
  %call = call noundef nonnull align 8 dereferenceable(4408) ptr @_ZN3sat9extension1sEv(ptr noundef nonnull align 8 dereferenceable(32) %this1)
  call void @_ZN3sat6solver12init_visitedEj(ptr noundef nonnull align 8 dereferenceable(4408) %call, i32 noundef 1)
  ret void
}