; Function Attrs: mustprogress uwtable
define hidden void @_ZN2pb6solver12init_visitedEv(ptr nocapture noundef nonnull readonly align 8 dereferenceable(1049) %this) local_unnamed_addr #3 align 2 {
entry:
  %m_solver.i = getelementptr inbounds i8, ptr %this, i64 24
  %0 = load ptr, ptr %m_solver.i, align 8
  %m_visited.i = getelementptr inbounds i8, ptr %0, i64 3984
  %m_justification.i.i = getelementptr inbounds i8, ptr %0, i64 3448
  %1 = load ptr, ptr %m_justification.i.i, align 8
  %cmp.i.i.i = icmp eq ptr %1, null
  br i1 %cmp.i.i.i, label %_ZNK3sat6solver8num_varsEv.exit.i, label %if.end.i.i.i

if.end.i.i.i:                                     ; preds = %entry
  %arrayidx.i.i.i = getelementptr inbounds i8, ptr %1, i64 -4
  %2 = load i32, ptr %arrayidx.i.i.i, align 4
  %3 = shl i32 %2, 1
  br label %_ZNK3sat6solver8num_varsEv.exit.i

_ZNK3sat6solver8num_varsEv.exit.i:                ; preds = %if.end.i.i.i, %entry
  %retval.0.i.i.i = phi i32 [ %3, %if.end.i.i.i ], [ 0, %entry ]
  %m_visited_end.i.i = getelementptr inbounds i8, ptr %0, i64 3996
  %4 = load i32, ptr %m_visited_end.i.i, align 4
  %cmp.not.i.i.not = icmp eq i32 %4, -1
  %m_visited_begin5.i.i = getelementptr inbounds i8, ptr %0, i64 3992
  br i1 %cmp.not.i.i.not, label %if.then.i.i, label %if.else.i.i

if.then.i.i:                                      ; preds = %_ZNK3sat6solver8num_varsEv.exit.i
  store i32 0, ptr %m_visited_begin5.i.i, align 8
  store i32 1, ptr %m_visited_end.i.i, align 4
  %5 = load ptr, ptr %m_visited.i, align 8
  %tobool.not.i.i.i = icmp eq ptr %5, null
  br i1 %tobool.not.i.i.i, label %if.end.i.i, label %if.then.i.i.i

if.then.i.i.i:                                    ; preds = %if.then.i.i
  %arrayidx.i.i1.i = getelementptr inbounds i8, ptr %5, i64 -4
  store i32 0, ptr %arrayidx.i.i1.i, align 4
  br label %if.end.i.i

if.else.i.i:                                      ; preds = %_ZNK3sat6solver8num_varsEv.exit.i
  %add.i.i = add nuw i32 %4, 1
  store i32 %4, ptr %m_visited_begin5.i.i, align 8
  store i32 %add.i.i, ptr %m_visited_end.i.i, align 4
  br label %if.end.i.i

if.end.i.i:                                       ; preds = %if.else.i.i, %if.then.i.i.i, %if.then.i.i
  %cmp10.not.i.i = icmp eq i32 %retval.0.i.i.i, 0
  br i1 %cmp10.not.i.i, label %_ZN3sat6solver12init_visitedEj.exit, label %while.cond.i.i

while.cond.i.i:                                   ; preds = %if.end.i.i, %_ZN6vectorIjLb0EjE9push_backEOj.exit.i.i
  %6 = load ptr, ptr %m_visited.i, align 8
  %cmp.i.i2.i = icmp eq ptr %6, null
  br i1 %cmp.i.i2.i, label %if.then.i7.i.i, label %_ZNK6vectorIjLb0EjE4sizeEv.exit.thread.i.i

_ZNK6vectorIjLb0EjE4sizeEv.exit.thread.i.i:       ; preds = %while.cond.i.i
  %arrayidx.i3.i.i = getelementptr inbounds i8, ptr %6, i64 -4
  %7 = load i32, ptr %arrayidx.i3.i.i, align 4
  %cmp109.i.i = icmp ult i32 %7, %retval.0.i.i.i
  br i1 %cmp109.i.i, label %lor.lhs.false.i.i.i, label %_ZN3sat6solver12init_visitedEj.exit

lor.lhs.false.i.i.i:                              ; preds = %_ZNK6vectorIjLb0EjE4sizeEv.exit.thread.i.i
  %arrayidx4.i.i.i = getelementptr inbounds i8, ptr %6, i64 -8
  %8 = load i32, ptr %arrayidx4.i.i.i, align 4
  %cmp5.i.i.i = icmp eq i32 %7, %8
  br i1 %cmp5.i.i.i, label %if.then.i7.i.i, label %_ZN6vectorIjLb0EjE9push_backEOj.exit.i.i

if.then.i7.i.i:                                   ; preds = %lor.lhs.false.i.i.i, %while.cond.i.i
  tail call void @_ZN6vectorIjLb0EjE13expand_vectorEv(ptr noundef nonnull align 8 dereferenceable(8) %m_visited.i)
  %.pre.i.i.i = load ptr, ptr %m_visited.i, align 8
  %arrayidx8.phi.trans.insert.i.i.i = getelementptr inbounds i8, ptr %.pre.i.i.i, i64 -4
  %.pre1.i.i.i = load i32, ptr %arrayidx8.phi.trans.insert.i.i.i, align 4
  br label %_ZN6vectorIjLb0EjE9push_backEOj.exit.i.i

_ZN6vectorIjLb0EjE9push_backEOj.exit.i.i:         ; preds = %if.then.i7.i.i, %lor.lhs.false.i.i.i
  %9 = phi i32 [ %.pre1.i.i.i, %if.then.i7.i.i ], [ %7, %lor.lhs.false.i.i.i ]
  %10 = phi ptr [ %.pre.i.i.i, %if.then.i7.i.i ], [ %6, %lor.lhs.false.i.i.i ]
  %idx.ext.i.i.i = zext i32 %9 to i64
  %add.ptr.i.i.i = getelementptr inbounds i32, ptr %10, i64 %idx.ext.i.i.i
  store i32 0, ptr %add.ptr.i.i.i, align 4
  %11 = load ptr, ptr %m_visited.i, align 8
  %arrayidx10.i.i.i = getelementptr inbounds i8, ptr %11, i64 -4
  %12 = load i32, ptr %arrayidx10.i.i.i, align 4
  %inc.i.i.i = add i32 %12, 1
  store i32 %inc.i.i.i, ptr %arrayidx10.i.i.i, align 4
  br label %while.cond.i.i, !llvm.loop !56

_ZN3sat6solver12init_visitedEj.exit:              ; preds = %_ZNK6vectorIjLb0EjE4sizeEv.exit.thread.i.i, %if.end.i.i
  ret void
}